target datalayout = "e-m:e-p270:32:32-p271:32:32-p272:64:64-i64:64-i128:128-f80:128-n8:16:32:64-S128"
target triple = "x86_64-pc-linux-gnu"

%"class.std::__cxx11::basic_string" = type { %"struct.std::__cxx11::basic_string<char>::_Alloc_hider", i64, %union.anon.0 }
%"struct.std::__cxx11::basic_string<char>::_Alloc_hider" = type { ptr }
%union.anon.0 = type { i64, [8 x i8] }
%"class.std::filesystem::__cxx11::path" = type { %"class.std::__cxx11::basic_string", %"struct.std::filesystem::__cxx11::path::_List" }
%"struct.std::filesystem::__cxx11::path::_List" = type { %"class.std::unique_ptr" }
%"class.std::unique_ptr" = type { %"struct.std::__uniq_ptr_data" }
%"struct.std::__uniq_ptr_data" = type { %"class.std::__uniq_ptr_impl" }
%"class.std::__uniq_ptr_impl" = type { %"class.std::tuple" }
%"class.std::tuple" = type { %"struct.std::_Tuple_impl" }
%"struct.std::_Tuple_impl" = type { %"struct.std::_Head_base.5" }
%"struct.std::_Head_base.5" = type { ptr }
%"class.gmx::ArrayRef" = type { %"struct.gmx::ArrayRefIter", %"struct.gmx::ArrayRefIter" }
%"struct.gmx::ArrayRefIter" = type { ptr }

@.str.57 = private unnamed_addr constant [124 x i8] c"generated/home/dtcxzyw/WorkSpace/Projects/compilers/llvm-opt-benchmark/bench/gromacs/gromacs/src/gromacs/gmxana/gmx_nmr.cpp\00", align 1
@stderr = external global ptr, align 8
@.str.63 = private unnamed_addr constant [27 x i8] c"End your selection with 0\0A\00", align 1
@.str.65 = private unnamed_addr constant [3 x i8] c"%d\00", align 1
@.str.66 = private unnamed_addr constant [25 x i8] c"Error reading user input\00", align 1
@.str.93 = private unnamed_addr constant [2 x i8] c"\0A\00", align 1
@.str.119 = private unnamed_addr constant [17 x i8] c"GMX_ENER_VERBOSE\00", align 1
@.str.120 = private unnamed_addr constant [51 x i8] c"Select the terms you want from the following list\0A\00", align 1
@.str.121 = private unnamed_addr constant [10 x i8] c" %3d=%14s\00", align 1
@.str.122 = private unnamed_addr constant [3 x i8] c"bE\00", align 1
@.str.123 = private unnamed_addr constant [4 x i8] c"set\00", align 1

; Function Attrs: mustprogress nounwind uwtable
define linkonce_odr noundef nonnull align 8 dereferenceable(32) ptr @_ZNK3gmx12ArrayRefIterIKNSt7__cxx1112basic_stringIcSt11char_traitsIcESaIcEEEEdeEv(ptr noundef nonnull align 8 dereferenceable(8) %0) #3 comdat align 2 {
  %2 = alloca ptr, align 8
  store ptr %0, ptr %2, align 8, !tbaa !380
  %3 = load ptr, ptr %2, align 8
  %4 = getelementptr inbounds nuw %"struct.gmx::ArrayRefIter", ptr %3, i32 0, i32 0
  %5 = load ptr, ptr %4, align 8, !tbaa !382
  ret ptr %5
}

; Function Attrs: mustprogress nounwind uwtable
define linkonce_odr noundef nonnull align 8 dereferenceable(8) ptr @_ZN3gmx12ArrayRefIterIKNSt7__cxx1112basic_stringIcSt11char_traitsIcESaIcEEEEpLEl(ptr noundef nonnull align 8 dereferenceable(8) %0, i64 noundef %1) #3 comdat align 2 {
  %3 = alloca ptr, align 8
  %4 = alloca i64, align 8
  store ptr %0, ptr %3, align 8, !tbaa !380
  store i64 %1, ptr %4, align 8, !tbaa !239
  %5 = load ptr, ptr %3, align 8
  %6 = load i64, ptr %4, align 8, !tbaa !239
  %7 = getelementptr inbounds nuw %"struct.gmx::ArrayRefIter", ptr %5, i32 0, i32 0
  %8 = load ptr, ptr %7, align 8, !tbaa !382
  %9 = getelementptr inbounds %"class.std::__cxx11::basic_string", ptr %8, i64 %6
  store ptr %9, ptr %7, align 8, !tbaa !382
  ret ptr %5
}

; Function Attrs: mustprogress nounwind uwtable
define linkonce_odr noundef nonnull align 8 dereferenceable(8) ptr @_ZNK3gmx5boost14stl_interfaces2v118iterator_interfaceINS_12ArrayRefIterIKNSt7__cxx1112basic_stringIcSt11char_traitsIcESaIcEEEEESt26random_access_iterator_tagSB_RSB_PSB_lvE7derivedEv(ptr noundef nonnull align 1 dereferenceable(1) %0) #3 comdat align 2 {
  %2 = alloca ptr, align 8
  store ptr %0, ptr %2, align 8, !tbaa !505
  %3 = load ptr, ptr %2, align 8
  ret ptr %3
}

; Function Attrs: mustprogress nounwind uwtable
define available_externally noundef ptr @_ZNKSt7__cxx1112basic_stringIcSt11char_traitsIcESaIcEE7_M_dataEv(ptr noundef nonnull align 8 dereferenceable(32) %0) #3 align 2 {
  %2 = alloca ptr, align 8
  store ptr %0, ptr %2, align 8, !tbaa !201
  %3 = load ptr, ptr %2, align 8
  %4 = getelementptr inbounds nuw %"class.std::__cxx11::basic_string", ptr %3, i32 0, i32 0
  %5 = getelementptr inbounds nuw %"struct.std::__cxx11::basic_string<char>::_Alloc_hider", ptr %4, i32 0, i32 0
  %6 = load ptr, ptr %5, align 8, !tbaa !313
  ret ptr %6
}

; Function Attrs: mustprogress nounwind uwtable
define linkonce_odr noundef nonnull align 8 dereferenceable(32) ptr @_ZNK3gmx5boost14stl_interfaces2v118iterator_interfaceINS_12ArrayRefIterIKNSt7__cxx1112basic_stringIcSt11char_traitsIcESaIcEEEEESt26random_access_iterator_tagSB_RSB_PSB_lvEixISC_EEDTcmpLclsr3stdE7declvalIRT_EEfp_declsr3stdE7declvalISJ_EEEl(ptr noundef nonnull align 1 dereferenceable(1) %0, i64 noundef %1) #3 comdat align 2 {
  %3 = alloca ptr, align 8
  %4 = alloca i64, align 8
  %5 = alloca %"struct.gmx::ArrayRefIter", align 8
  store ptr %0, ptr %3, align 8, !tbaa !505
  store i64 %1, ptr %4, align 8, !tbaa !239
  %6 = load ptr, ptr %3, align 8
  call void @llvm.lifetime.start.p0(i64 8, ptr %5) #16
  %7 = call noundef nonnull align 8 dereferenceable(8) ptr @_ZNK3gmx5boost14stl_interfaces2v118iterator_interfaceINS_12ArrayRefIterIKNSt7__cxx1112basic_stringIcSt11char_traitsIcESaIcEEEEESt26random_access_iterator_tagSB_RSB_PSB_lvE7derivedEv(ptr noundef nonnull align 1 dereferenceable(1) %6) #16
  call void @llvm.memcpy.p0.p0.i64(ptr align 8 %5, ptr align 8 %7, i64 8, i1 false)
  %8 = load i64, ptr %4, align 8, !tbaa !239
  %9 = call noundef nonnull align 8 dereferenceable(8) ptr @_ZN3gmx12ArrayRefIterIKNSt7__cxx1112basic_stringIcSt11char_traitsIcESaIcEEEEpLEl(ptr noundef nonnull align 8 dereferenceable(8) %5, i64 noundef %8) #16
  %10 = call noundef nonnull align 8 dereferenceable(32) ptr @_ZNK3gmx12ArrayRefIterIKNSt7__cxx1112basic_stringIcSt11char_traitsIcESaIcEEEEdeEv(ptr noundef nonnull align 8 dereferenceable(8) %5) #16
  call void @llvm.lifetime.end.p0(i64 8, ptr %5) #16
  ret ptr %10
}

; Function Attrs: inlinehint mustprogress uwtable
define internal void @_ZL14gmx_sfree_implIbEvPKcS1_iPT_(ptr noundef %0, ptr noundef %1, i32 noundef %2, ptr noundef %3) #7 {
  %5 = alloca ptr, align 8
  %6 = alloca ptr, align 8
  %7 = alloca i32, align 4
  %8 = alloca ptr, align 8
  store ptr %0, ptr %5, align 8, !tbaa !19
  store ptr %1, ptr %6, align 8, !tbaa !19
  store i32 %2, ptr %7, align 4, !tbaa !4
  store ptr %3, ptr %8, align 8, !tbaa !295
  %9 = load ptr, ptr %5, align 8, !tbaa !19
  %10 = load ptr, ptr %6, align 8, !tbaa !19
  %11 = load i32, ptr %7, align 4, !tbaa !4
  %12 = load ptr, ptr %8, align 8, !tbaa !295
  call void @_Z9save_freePKcS0_iPv(ptr noundef %9, ptr noundef %10, i32 noundef %11, ptr noundef %12)
  ret void
}

; Function Attrs: inlinehint mustprogress uwtable
define internal void @_ZL13gmx_snew_implIiEvPKcS1_iRPT_m(ptr noundef %0, ptr noundef %1, i32 noundef %2, ptr noundef nonnull align 8 dereferenceable(8) %3, i64 noundef %4) #7 {
  %6 = alloca ptr, align 8
  %7 = alloca ptr, align 8
  %8 = alloca i32, align 4
  %9 = alloca ptr, align 8
  %10 = alloca i64, align 8
  store ptr %0, ptr %6, align 8, !tbaa !19
  store ptr %1, ptr %7, align 8, !tbaa !19
  store i32 %2, ptr %8, align 4, !tbaa !4
  store ptr %3, ptr %9, align 8, !tbaa !214
  store i64 %4, ptr %10, align 8, !tbaa !239
  %11 = load ptr, ptr %6, align 8, !tbaa !19
  %12 = load ptr, ptr %7, align 8, !tbaa !19
  %13 = load i32, ptr %8, align 4, !tbaa !4
  %14 = load i64, ptr %10, align 8, !tbaa !239
  %15 = call noundef ptr @_Z11save_callocPKcS0_imm(ptr noundef %11, ptr noundef %12, i32 noundef %13, i64 noundef %14, i64 noundef 4)
  %16 = load ptr, ptr %9, align 8, !tbaa !214
  store ptr %15, ptr %16, align 8, !tbaa !17
  ret void
}

; Function Attrs: inlinehint mustprogress uwtable
define internal void @_ZL13gmx_snew_implIbEvPKcS1_iRPT_m(ptr noundef %0, ptr noundef %1, i32 noundef %2, ptr noundef nonnull align 8 dereferenceable(8) %3, i64 noundef %4) #7 {
  %6 = alloca ptr, align 8
  %7 = alloca ptr, align 8
  %8 = alloca i32, align 4
  %9 = alloca ptr, align 8
  %10 = alloca i64, align 8
  store ptr %0, ptr %6, align 8, !tbaa !19
  store ptr %1, ptr %7, align 8, !tbaa !19
  store i32 %2, ptr %8, align 4, !tbaa !4
  store ptr %3, ptr %9, align 8, !tbaa !503
  store i64 %4, ptr %10, align 8, !tbaa !239
  %11 = load ptr, ptr %6, align 8, !tbaa !19
  %12 = load ptr, ptr %7, align 8, !tbaa !19
  %13 = load i32, ptr %8, align 4, !tbaa !4
  %14 = load i64, ptr %10, align 8, !tbaa !239
  %15 = call noundef ptr @_Z11save_callocPKcS0_imm(ptr noundef %11, ptr noundef %12, i32 noundef %13, i64 noundef %14, i64 noundef 1)
  %16 = load ptr, ptr %9, align 8, !tbaa !503
  store ptr %15, ptr %16, align 8, !tbaa !295
  ret void
}

; Function Attrs: mustprogress nounwind uwtable
define available_externally noundef ptr @_ZNKSt7__cxx1112basic_stringIcSt11char_traitsIcESaIcEE5c_strEv(ptr noundef nonnull align 8 dereferenceable(32) %0) #3 align 2 {
  %2 = alloca ptr, align 8
  store ptr %0, ptr %2, align 8, !tbaa !201
  %3 = load ptr, ptr %2, align 8
  %4 = call noundef ptr @_ZNKSt7__cxx1112basic_stringIcSt11char_traitsIcESaIcEE7_M_dataEv(ptr noundef nonnull align 8 dereferenceable(32) %3)
  ret ptr %4
}

; Function Attrs: mustprogress nounwind uwtable
define linkonce_odr noundef nonnull align 8 dereferenceable(32) ptr @_ZNK3gmx8ArrayRefIKNSt7__cxx1112basic_stringIcSt11char_traitsIcESaIcEEEEixEm(ptr noundef nonnull align 8 dereferenceable(16) %0, i64 noundef %1) #3 comdat align 2 {
  %3 = alloca ptr, align 8
  %4 = alloca i64, align 8
  store ptr %0, ptr %3, align 8, !tbaa !242
  store i64 %1, ptr %4, align 8, !tbaa !239
  %5 = load ptr, ptr %3, align 8
  %6 = getelementptr inbounds nuw %"class.gmx::ArrayRef", ptr %5, i32 0, i32 0
  %7 = load i64, ptr %4, align 8, !tbaa !239
  %8 = call noundef nonnull align 8 dereferenceable(32) ptr @_ZNK3gmx5boost14stl_interfaces2v118iterator_interfaceINS_12ArrayRefIterIKNSt7__cxx1112basic_stringIcSt11char_traitsIcESaIcEEEEESt26random_access_iterator_tagSB_RSB_PSB_lvEixISC_EEDTcmpLclsr3stdE7declvalIRT_EEfp_declsr3stdE7declvalISJ_EEEl(ptr noundef nonnull align 1 dereferenceable(1) %6, i64 noundef %7) #16
  ret ptr %8
}

; Function Attrs: mustprogress uwtable
define internal noundef ptr @_ZL9select_itiN3gmx8ArrayRefIKNSt7__cxx1112basic_stringIcSt11char_traitsIcESaIcEEEEEPi(i32 noundef %0, ptr %1, ptr %2, ptr noundef %3) #0 personality ptr @__gxx_personality_v0 {
  %5 = alloca %"class.gmx::ArrayRef", align 8
  %6 = alloca i32, align 4
  %7 = alloca ptr, align 8
  %8 = alloca ptr, align 8
  %9 = alloca i32, align 4
  %10 = alloca i32, align 4
  %11 = alloca i32, align 4
  %12 = alloca i32, align 4
  %13 = alloca ptr, align 8
  %14 = alloca i8, align 1
  %15 = alloca %"class.std::filesystem::__cxx11::path", align 8
  %16 = alloca ptr, align 8
  %17 = alloca i32, align 4
  %18 = getelementptr inbounds nuw { ptr, ptr }, ptr %5, i32 0, i32 0
  store ptr %1, ptr %18, align 8
  %19 = getelementptr inbounds nuw { ptr, ptr }, ptr %5, i32 0, i32 1
  store ptr %2, ptr %19, align 8
  store i32 %0, ptr %6, align 4, !tbaa !4
  store ptr %3, ptr %7, align 8, !tbaa !17
  call void @llvm.lifetime.start.p0(i64 8, ptr %8) #16
  call void @llvm.lifetime.start.p0(i64 4, ptr %9) #16
  call void @llvm.lifetime.start.p0(i64 4, ptr %10) #16
  call void @llvm.lifetime.start.p0(i64 4, ptr %11) #16
  call void @llvm.lifetime.start.p0(i64 4, ptr %12) #16
  call void @llvm.lifetime.start.p0(i64 8, ptr %13) #16
  call void @llvm.lifetime.start.p0(i64 1, ptr %14) #16
  store i8 1, ptr %14, align 1, !tbaa !34
  %20 = call ptr @getenv(ptr noundef @.str.119) #16
  %21 = icmp ne ptr %20, null
  br i1 %21, label %22, label %23

22:                                               ; preds = %4
  store i8 0, ptr %14, align 1, !tbaa !34
  br label %23

23:                                               ; preds = %22, %4
  %24 = load ptr, ptr @stderr, align 8, !tbaa !12
  %25 = call i32 (ptr, ptr, ...) @fprintf(ptr noundef %24, ptr noundef @.str.120) #16
  %26 = load ptr, ptr @stderr, align 8, !tbaa !12
  %27 = call i32 (ptr, ptr, ...) @fprintf(ptr noundef %26, ptr noundef @.str.63) #16
  %28 = load i8, ptr %14, align 1, !tbaa !34, !range !36, !noundef !37
  %29 = trunc i8 %28 to i1
  br i1 %29, label %30, label %63

30:                                               ; preds = %23
  store i32 0, ptr %10, align 4, !tbaa !4
  br label %31

31:                                               ; preds = %59, %30
  %32 = load i32, ptr %10, align 4, !tbaa !4
  %33 = load i32, ptr %6, align 4, !tbaa !4
  %34 = icmp slt i32 %32, %33
  br i1 %34, label %35, label %62

35:                                               ; preds = %31
  store i32 0, ptr %11, align 4, !tbaa !4
  br label %36

36:                                               ; preds = %54, %35
  %37 = load i32, ptr %11, align 4, !tbaa !4
  %38 = icmp slt i32 %37, 4
  br i1 %38, label %39, label %43

39:                                               ; preds = %36
  %40 = load i32, ptr %10, align 4, !tbaa !4
  %41 = load i32, ptr %6, align 4, !tbaa !4
  %42 = icmp slt i32 %40, %41
  br label %43

43:                                               ; preds = %39, %36
  %44 = phi i1 [ false, %36 ], [ %42, %39 ]
  br i1 %44, label %45, label %59

45:                                               ; preds = %43
  %46 = load ptr, ptr @stderr, align 8, !tbaa !12
  %47 = load i32, ptr %10, align 4, !tbaa !4
  %48 = add nsw i32 %47, 1
  %49 = load i32, ptr %10, align 4, !tbaa !4
  %50 = sext i32 %49 to i64
  %51 = call noundef nonnull align 8 dereferenceable(32) ptr @_ZNK3gmx8ArrayRefIKNSt7__cxx1112basic_stringIcSt11char_traitsIcESaIcEEEEixEm(ptr noundef nonnull align 8 dereferenceable(16) %5, i64 noundef %50)
  %52 = call noundef ptr @_ZNKSt7__cxx1112basic_stringIcSt11char_traitsIcESaIcEE5c_strEv(ptr noundef nonnull align 8 dereferenceable(32) %51) #16
  %53 = call i32 (ptr, ptr, ...) @fprintf(ptr noundef %46, ptr noundef @.str.121, i32 noundef %48, ptr noundef %52) #16
  br label %54

54:                                               ; preds = %45
  %55 = load i32, ptr %11, align 4, !tbaa !4
  %56 = add nsw i32 %55, 1
  store i32 %56, ptr %11, align 4, !tbaa !4
  %57 = load i32, ptr %10, align 4, !tbaa !4
  %58 = add nsw i32 %57, 1
  store i32 %58, ptr %10, align 4, !tbaa !4
  br label %36, !llvm.loop !293

59:                                               ; preds = %43
  %60 = load ptr, ptr @stderr, align 8, !tbaa !12
  %61 = call i32 (ptr, ptr, ...) @fprintf(ptr noundef %60, ptr noundef @.str.93) #16
  br label %31, !llvm.loop !294

62:                                               ; preds = %31
  br label %63

63:                                               ; preds = %62, %23
  %64 = load i32, ptr %6, align 4, !tbaa !4
  %65 = sext i32 %64 to i64
  call void @_ZL13gmx_snew_implIbEvPKcS1_iRPT_m(ptr noundef @.str.122, ptr noundef @.str.57, i32 noundef 143, ptr noundef nonnull align 8 dereferenceable(8) %8, i64 noundef %65)
  br label %66

66:                                               ; preds = %89, %63
  %67 = call i32 (ptr, ...) @__isoc99_scanf(ptr noundef @.str.65, ptr noundef %9)
  %68 = icmp ne i32 1, %67
  br i1 %68, label %69, label %75

69:                                               ; preds = %66
  call void @llvm.lifetime.start.p0(i64 40, ptr %15) #16
  call void @_ZNSt10filesystem7__cxx114pathC2IA124_cS1_EERKT_NS1_6formatE(ptr noundef nonnull align 8 dereferenceable(40) %15, ptr noundef nonnull align 1 dereferenceable(124) @.str.57, i8 noundef zeroext 2)
  invoke void (i32, ptr, i32, ptr, ...) @_Z9gmx_fataliRKNSt10filesystem7__cxx114pathEiPKcz(i32 noundef 0, ptr noundef nonnull align 8 dereferenceable(40) %15, i32 noundef 148, ptr noundef @.str.66) #17
          to label %70 unwind label %71

70:                                               ; preds = %69
  unreachable

71:                                               ; preds = %69
  %72 = landingpad { ptr, i32 }
          cleanup
  %73 = extractvalue { ptr, i32 } %72, 0
  store ptr %73, ptr %16, align 8
  %74 = extractvalue { ptr, i32 } %72, 1
  store i32 %74, ptr %17, align 4
  call void @_ZNSt10filesystem7__cxx114pathD2Ev(ptr noundef nonnull align 8 dereferenceable(40) %15) #16
  call void @llvm.lifetime.end.p0(i64 40, ptr %15) #16
  call void @llvm.lifetime.end.p0(i64 1, ptr %14) #16
  call void @llvm.lifetime.end.p0(i64 8, ptr %13) #16
  call void @llvm.lifetime.end.p0(i64 4, ptr %12) #16
  call void @llvm.lifetime.end.p0(i64 4, ptr %11) #16
  call void @llvm.lifetime.end.p0(i64 4, ptr %10) #16
  call void @llvm.lifetime.end.p0(i64 4, ptr %9) #16
  call void @llvm.lifetime.end.p0(i64 8, ptr %8) #16
  br label %122

75:                                               ; preds = %66
  %76 = load i32, ptr %9, align 4, !tbaa !4
  %77 = icmp sgt i32 %76, 0
  br i1 %77, label %78, label %88

78:                                               ; preds = %75
  %79 = load i32, ptr %9, align 4, !tbaa !4
  %80 = load i32, ptr %6, align 4, !tbaa !4
  %81 = icmp sle i32 %79, %80
  br i1 %81, label %82, label %88

82:                                               ; preds = %78
  %83 = load ptr, ptr %8, align 8, !tbaa !295
  %84 = load i32, ptr %9, align 4, !tbaa !4
  %85 = sub nsw i32 %84, 1
  %86 = sext i32 %85 to i64
  %87 = getelementptr inbounds i8, ptr %83, i64 %86
  store i8 1, ptr %87, align 1, !tbaa !34
  br label %88

88:                                               ; preds = %82, %78, %75
  br label %89

89:                                               ; preds = %88
  %90 = load i32, ptr %9, align 4, !tbaa !4
  %91 = icmp ne i32 %90, 0
  br i1 %91, label %66, label %92, !llvm.loop !297

92:                                               ; preds = %89
  %93 = load i32, ptr %6, align 4, !tbaa !4
  %94 = sext i32 %93 to i64
  call void @_ZL13gmx_snew_implIiEvPKcS1_iRPT_m(ptr noundef @.str.123, ptr noundef @.str.57, i32 noundef 156, ptr noundef nonnull align 8 dereferenceable(8) %13, i64 noundef %94)
  %95 = load ptr, ptr %7, align 8, !tbaa !17
  store i32 0, ptr %95, align 4, !tbaa !4
  store i32 0, ptr %12, align 4, !tbaa !4
  br label %96

96:                                               ; preds = %116, %92
  %97 = load i32, ptr %12, align 4, !tbaa !4
  %98 = load i32, ptr %6, align 4, !tbaa !4
  %99 = icmp slt i32 %97, %98
  br i1 %99, label %100, label %119

100:                                              ; preds = %96
  %101 = load ptr, ptr %8, align 8, !tbaa !295
  %102 = load i32, ptr %12, align 4, !tbaa !4
  %103 = sext i32 %102 to i64
  %104 = getelementptr inbounds i8, ptr %101, i64 %103
  %105 = load i8, ptr %104, align 1, !tbaa !34, !range !36, !noundef !37
  %106 = trunc i8 %105 to i1
  br i1 %106, label %107, label %115

107:                                              ; preds = %100
  %108 = load i32, ptr %12, align 4, !tbaa !4
  %109 = load ptr, ptr %13, align 8, !tbaa !17
  %110 = load ptr, ptr %7, align 8, !tbaa !17
  %111 = load i32, ptr %110, align 4, !tbaa !4
  %112 = add nsw i32 %111, 1
  store i32 %112, ptr %110, align 4, !tbaa !4
  %113 = sext i32 %111 to i64
  %114 = getelementptr inbounds i32, ptr %109, i64 %113
  store i32 %108, ptr %114, align 4, !tbaa !4
  br label %115

115:                                              ; preds = %107, %100
  br label %116

116:                                              ; preds = %115
  %117 = load i32, ptr %12, align 4, !tbaa !4
  %118 = add nsw i32 %117, 1
  store i32 %118, ptr %12, align 4, !tbaa !4
  br label %96, !llvm.loop !298

119:                                              ; preds = %96
  %120 = load ptr, ptr %8, align 8, !tbaa !295
  call void @_ZL14gmx_sfree_implIbEvPKcS1_iPT_(ptr noundef @.str.122, ptr noundef @.str.57, i32 noundef 165, ptr noundef %120)
  %121 = load ptr, ptr %13, align 8, !tbaa !17
  call void @llvm.lifetime.end.p0(i64 1, ptr %14) #16
  call void @llvm.lifetime.end.p0(i64 8, ptr %13) #16
  call void @llvm.lifetime.end.p0(i64 4, ptr %12) #16
  call void @llvm.lifetime.end.p0(i64 4, ptr %11) #16
  call void @llvm.lifetime.end.p0(i64 4, ptr %10) #16
  call void @llvm.lifetime.end.p0(i64 4, ptr %9) #16
  call void @llvm.lifetime.end.p0(i64 8, ptr %8) #16
  ret ptr %121

122:                                              ; preds = %71
  %123 = load ptr, ptr %16, align 8
  %124 = load i32, ptr %17, align 4
  %125 = insertvalue { ptr, i32 } poison, ptr %123, 0
  %126 = insertvalue { ptr, i32 } %125, i32 %124, 1
  resume { ptr, i32 } %126
}