; Function Attrs: cold mustprogress uwtable
define internal fastcc noundef ptr @_ZL9select_itiN3gmx8ArrayRefIKNSt7__cxx1112basic_stringIcSt11char_traitsIcESaIcEEEEEPi(i32 noundef range(i32 -715827882, 715827883) %0, ptr readonly captures(none) %1, ptr noundef nonnull captures(none) %2) unnamed_addr #8 personality ptr @__gxx_personality_v0 {
  %4 = alloca i32, align 4
  %5 = alloca %"class.std::filesystem::__cxx11::path", align 8
  call void @llvm.lifetime.start.p0(i64 4, ptr nonnull %4) #20
  %6 = tail call ptr @getenv(ptr noundef nonnull @.str.119) #20
  %.not = icmp eq ptr %6, null
  %7 = load ptr, ptr @stderr, align 8, !tbaa !68
  %8 = tail call i64 @fwrite(ptr nonnull @.str.120, i64 50, i64 1, ptr %7) #24
  %9 = load ptr, ptr @stderr, align 8, !tbaa !68
  %10 = tail call i64 @fwrite(ptr nonnull @.str.63, i64 26, i64 1, ptr %9) #24
  %11 = icmp sgt i32 %0, 0
  %or.cond37 = and i1 %.not, %11
  br i1 %or.cond37, label %.preheader.preheader, label %..loopexit_crit_edge

..loopexit_crit_edge:                             ; preds = %3
  %.pre = sext i32 %0 to i64
  br label %.loopexit

.preheader.preheader:                             ; preds = %3
  %12 = zext nneg i32 %0 to i64
  br label %.preheader

.preheader:                                       ; preds = %.preheader.preheader, %24
  %.035 = phi i64 [ %indvars.iv.next, %24 ], [ 0, %.preheader.preheader ]
  %sext = shl i64 %.035, 32
  %13 = ashr exact i64 %sext, 32
  br label %14

14:                                               ; preds = %.preheader, %14
  %indvars.iv = phi i64 [ %13, %.preheader ], [ %indvars.iv.next, %14 ]
  %.02133 = phi i32 [ 0, %.preheader ], [ %20, %14 ]
  %15 = load ptr, ptr @stderr, align 8, !tbaa !68
  %indvars.iv.next = add nsw i64 %indvars.iv, 1
  %16 = getelementptr inbounds %"class.std::__cxx11::basic_string", ptr %1, i64 %indvars.iv
  %17 = load ptr, ptr %16, align 8, !tbaa !30
  %18 = trunc nsw i64 %indvars.iv.next to i32
  %19 = tail call i32 (ptr, ptr, ...) @fprintf(ptr noundef %15, ptr noundef nonnull @.str.121, i32 noundef %18, ptr noundef %17) #23
  %20 = add nuw nsw i32 %.02133, 1
  %21 = icmp samesign ult i32 %.02133, 3
  %22 = icmp slt i64 %indvars.iv.next, %12
  %23 = and i1 %21, %22
  br i1 %23, label %14, label %24, !llvm.loop !302

24:                                               ; preds = %14
  %25 = load ptr, ptr @stderr, align 8, !tbaa !68
  %fputc = tail call i32 @fputc(i32 10, ptr %25)
  %26 = icmp sgt i32 %0, %18
  br i1 %26, label %.preheader, label %.loopexit, !llvm.loop !303

.loopexit:                                        ; preds = %24, %..loopexit_crit_edge
  %.pre-phi = phi i64 [ %.pre, %..loopexit_crit_edge ], [ %12, %24 ]
  %27 = tail call noundef ptr @_Z11save_callocPKcS0_imm(ptr noundef nonnull @.str.122, ptr noundef nonnull @.str.57, i32 noundef 143, i64 noundef range(i64 -715827882, 715827883) %.pre-phi, i64 noundef 1)
  %invariant.gep = getelementptr i8, ptr %27, i64 -1
  br label %28

28:                                               ; preds = %39, %.loopexit
  %29 = call i32 (ptr, ...) @__isoc99_scanf(ptr noundef nonnull @.str.65, ptr noundef nonnull %4)
  %.not25 = icmp eq i32 %29, 1
  br i1 %.not25, label %34, label %30

30:                                               ; preds = %28
  call void @llvm.lifetime.start.p0(i64 40, ptr nonnull %5) #20
  call void @_ZNSt10filesystem7__cxx114pathC2IA124_cS1_EERKT_NS1_6formatE(ptr noundef nonnull align 8 dereferenceable(40) %5, ptr noundef nonnull align 1 dereferenceable(124) @.str.57, i8 noundef zeroext 2)
  invoke void (i32, ptr, i32, ptr, ...) @_Z9gmx_fataliRKNSt10filesystem7__cxx114pathEiPKcz(i32 noundef 0, ptr noundef nonnull align 8 dereferenceable(40) %5, i32 noundef 148, ptr noundef nonnull @.str.66) #21
          to label %31 unwind label %32

31:                                               ; preds = %30
  unreachable

32:                                               ; preds = %30
  %33 = landingpad { ptr, i32 }
          cleanup
  call void @_ZNSt10filesystem7__cxx114pathD2Ev(ptr noundef nonnull align 8 dereferenceable(40) %5) #20
  call void @llvm.lifetime.end.p0(i64 40, ptr nonnull %5) #20
  call void @llvm.lifetime.end.p0(i64 4, ptr nonnull %4) #20
  resume { ptr, i32 } %33

34:                                               ; preds = %28
  %35 = load i32, ptr %4, align 4, !tbaa !4
  %36 = icmp slt i32 %35, 1
  %.not26 = icmp sgt i32 %35, %0
  %or.cond = or i1 %36, %.not26
  br i1 %or.cond, label %39, label %37

37:                                               ; preds = %34
  %38 = zext nneg i32 %35 to i64
  %gep = getelementptr i8, ptr %invariant.gep, i64 %38
  store i8 1, ptr %gep, align 1, !tbaa !53
  br label %39

39:                                               ; preds = %34, %37
  %.not27 = icmp eq i32 %35, 0
  br i1 %.not27, label %40, label %28, !llvm.loop !304

40:                                               ; preds = %39
  %41 = call noundef ptr @_Z11save_callocPKcS0_imm(ptr noundef nonnull @.str.123, ptr noundef nonnull @.str.57, i32 noundef 156, i64 noundef range(i64 -2147483648, 2147483648) %.pre-phi, i64 noundef 4)
  store i32 0, ptr %2, align 4, !tbaa !4
  br i1 %11, label %.lr.ph.preheader, label %._crit_edge

.lr.ph.preheader:                                 ; preds = %40
  %wide.trip.count = zext nneg i32 %0 to i64
  br label %.lr.ph

.lr.ph:                                           ; preds = %.lr.ph.preheader, %51
  %indvars.iv39 = phi i64 [ 0, %.lr.ph.preheader ], [ %indvars.iv.next40, %51 ]
  %42 = getelementptr inbounds nuw i8, ptr %27, i64 %indvars.iv39
  %43 = load i8, ptr %42, align 1, !tbaa !53, !range !70, !noundef !71
  %44 = trunc nuw i8 %43 to i1
  br i1 %44, label %45, label %51

45:                                               ; preds = %.lr.ph
  %46 = load i32, ptr %2, align 4, !tbaa !4
  %47 = add nsw i32 %46, 1
  store i32 %47, ptr %2, align 4, !tbaa !4
  %48 = sext i32 %46 to i64
  %49 = getelementptr inbounds i32, ptr %41, i64 %48
  %50 = trunc nuw nsw i64 %indvars.iv39 to i32
  store i32 %50, ptr %49, align 4, !tbaa !4
  br label %51

51:                                               ; preds = %.lr.ph, %45
  %indvars.iv.next40 = add nuw nsw i64 %indvars.iv39, 1
  %exitcond.not = icmp eq i64 %indvars.iv.next40, %wide.trip.count
  br i1 %exitcond.not, label %._crit_edge, label %.lr.ph, !llvm.loop !305

._crit_edge:                                      ; preds = %51, %40
  call void @_Z9save_freePKcS0_iPv(ptr noundef nonnull @.str.122, ptr noundef nonnull @.str.57, i32 noundef 165, ptr noundef %27)
  call void @llvm.lifetime.end.p0(i64 4, ptr nonnull %4) #20
  ret ptr %41
}